; Function Attrs: mustprogress uwtable
define hidden noundef nonnull align 8 dereferenceable(8) ptr @_ZNK1q3lit7displayERSo(ptr noundef nonnull align 8 dereferenceable(33) %0, ptr noundef nonnull align 8 dereferenceable(8) %1) local_unnamed_addr #3 align 2 {
  %3 = getelementptr inbounds nuw i8, ptr %0, i64 8
  %4 = load ptr, ptr %3, align 8, !tbaa !3
  %5 = getelementptr inbounds nuw i8, ptr %0, i64 16
  %6 = load ptr, ptr %5, align 8, !tbaa !10
  %7 = getelementptr inbounds nuw i8, ptr %4, i64 856
  %8 = load ptr, ptr %7, align 8, !tbaa !11
  %9 = icmp eq ptr %6, %8
  br i1 %9, label %10, label %16

10:                                               ; preds = %2
  %11 = getelementptr inbounds nuw i8, ptr %0, i64 32
  %12 = load i8, ptr %11, align 8, !tbaa !79, !range !81, !noundef !82
  %13 = trunc nuw i8 %12 to i1
  br i1 %13, label %16, label %14

14:                                               ; preds = %10
  %15 = tail call noundef nonnull align 8 dereferenceable(8) ptr @_ZlsRSoRK7obj_refI4expr11ast_managerE(ptr noundef nonnull align 8 dereferenceable(8) %1, ptr noundef nonnull align 8 dereferenceable(16) %0)
  br label %35

16:                                               ; preds = %10, %2
  %17 = getelementptr inbounds nuw i8, ptr %4, i64 864
  %18 = load ptr, ptr %17, align 8, !tbaa !83
  %19 = icmp eq ptr %6, %18
  br i1 %19, label %20, label %28

20:                                               ; preds = %16
  %21 = getelementptr inbounds nuw i8, ptr %0, i64 32
  %22 = load i8, ptr %21, align 8, !tbaa !79, !range !81, !noundef !82
  %23 = trunc nuw i8 %22 to i1
  br i1 %23, label %28, label %24

24:                                               ; preds = %20
  %25 = tail call noundef nonnull align 8 dereferenceable(8) ptr @_ZSt16__ostream_insertIcSt11char_traitsIcEERSt13basic_ostreamIT_T0_ES6_PKS3_l(ptr noundef nonnull align 8 dereferenceable(8) %1, ptr noundef nonnull @.str, i64 noundef 5)
  %26 = tail call noundef nonnull align 8 dereferenceable(8) ptr @_ZlsRSoRK7obj_refI4expr11ast_managerE(ptr noundef nonnull align 8 dereferenceable(8) %1, ptr noundef nonnull align 8 dereferenceable(16) %0)
  %27 = tail call noundef nonnull align 8 dereferenceable(8) ptr @_ZSt16__ostream_insertIcSt11char_traitsIcEERSt13basic_ostreamIT_T0_ES6_PKS3_l(ptr noundef nonnull align 8 dereferenceable(8) %26, ptr noundef nonnull @.str.1, i64 noundef 1)
  br label %35

28:                                               ; preds = %20, %16
  %29 = load ptr, ptr %0, align 8, !tbaa !10
  tail call void @_Z17ast_ll_bounded_ppRSoR11ast_managerP3astj(ptr noundef nonnull align 8 dereferenceable(8) %1, ptr noundef nonnull align 8 dereferenceable(976) %4, ptr noundef %29, i32 noundef 2)
  %30 = getelementptr inbounds nuw i8, ptr %0, i64 32
  %31 = load i8, ptr %30, align 8, !tbaa !79, !range !81, !noundef !82
  %32 = trunc nuw i8 %31 to i1
  %.str.2..str.3 = select i1 %32, ptr @.str.2, ptr @.str.3
  %33 = tail call noundef nonnull align 8 dereferenceable(8) ptr @_ZSt16__ostream_insertIcSt11char_traitsIcEERSt13basic_ostreamIT_T0_ES6_PKS3_l(ptr noundef nonnull align 8 dereferenceable(8) %1, ptr noundef nonnull %.str.2..str.3, i64 noundef 4)
  %34 = load ptr, ptr %5, align 8, !tbaa !10
  tail call void @_Z17ast_ll_bounded_ppRSoR11ast_managerP3astj(ptr noundef nonnull align 8 dereferenceable(8) %1, ptr noundef nonnull align 8 dereferenceable(976) %4, ptr noundef %34, i32 noundef 2)
  br label %35

35:                                               ; preds = %28, %24, %14
  %.0 = phi ptr [ %1, %28 ], [ %26, %24 ], [ %15, %14 ]
  ret ptr %.0
}